target datalayout = "e-m:e-p270:32:32-p271:32:32-p272:64:64-i64:64-i128:128-f80:128-n8:16:32:64-S128"
target triple = "x86_64-unknown-linux-gnu"

; Function Attrs: mustprogress uwtable
define void @uspoof_closeCheckResult_75(ptr noundef %checkResult) #0 {
entry:
  %checkResult.addr = alloca ptr, align 8
  %status = alloca i32, align 4
  %This = alloca ptr, align 8
  store ptr %checkResult, ptr %checkResult.addr, align 8
  store i32 0, ptr %status, align 4
  %0 = load ptr, ptr %checkResult.addr, align 8
  %call = call noundef ptr @_ZN6icu_7511CheckResult12validateThisEP17USpoofCheckResultR10UErrorCode(ptr noundef %0, ptr noundef nonnull align 4 dereferenceable(4) %status)
  store ptr %call, ptr %This, align 8
  %1 = load ptr, ptr %This, align 8
  %isnull = icmp eq ptr %1, null
  br i1 %isnull, label %delete.end, label %delete.notnull

delete.notnull:                                   ; preds = %entry
  %vtable = load ptr, ptr %1, align 8
  %vfn = getelementptr inbounds ptr, ptr %vtable, i64 1
  %2 = load ptr, ptr %vfn, align 8
  call void %2(ptr noundef nonnull align 8 dereferenceable(220) %1) #6
  br label %delete.end

delete.end:                                       ; preds = %delete.notnull, %entry
  ret void
}