; Function Attrs: mustprogress uwtable
define void @uspoof_closeCheckResult_75(ptr noundef %checkResult) local_unnamed_addr #0 {
entry:
  %status = alloca i32, align 4
  store i32 0, ptr %status, align 4
  %call = call noundef ptr @_ZN6icu_7511CheckResult12validateThisEP17USpoofCheckResultR10UErrorCode(ptr noundef %checkResult, ptr noundef nonnull align 4 dereferenceable(4) %status)
  %isnull = icmp eq ptr %call, null
  br i1 %isnull, label %delete.end, label %delete.notnull

delete.notnull:                                   ; preds = %entry
  %vtable = load ptr, ptr %call, align 8
  %vfn = getelementptr inbounds i8, ptr %vtable, i64 8
  %0 = load ptr, ptr %vfn, align 8
  call void %0(ptr noundef nonnull align 8 dereferenceable(220) %call) #6
  br label %delete.end

delete.end:                                       ; preds = %delete.notnull, %entry
  ret void
}